; Function Attrs: nounwind uwtable
define internal fastcc void @output_sep(ptr noundef %0, i8 noundef signext range(i8 45, 62) %1) unnamed_addr #0 {
  %3 = alloca i8, align 1
  store i8 %1, ptr %3, align 1, !tbaa !23
  %4 = getelementptr inbounds nuw i8, ptr %0, i64 116
  %5 = load i32, ptr %4, align 4, !tbaa !134
  %.not = icmp eq i32 %5, 0
  br i1 %.not, label %9, label %6

6:                                                ; preds = %2
  %7 = getelementptr inbounds nuw i8, ptr %0, i64 864
  %8 = load ptr, ptr %7, align 8, !tbaa !80
  tail call void %8(ptr noundef nonnull %0, ptr noundef nonnull @.str.61, i64 noundef 1) #18
  br label %output_color.exit

9:                                                ; preds = %2
  %10 = getelementptr inbounds nuw i8, ptr %0, i64 752
  %11 = getelementptr inbounds nuw i8, ptr %0, i64 124
  %12 = load i32, ptr %11, align 4, !tbaa !22
  %13 = tail call i32 @want_color_fd(i32 noundef 1, i32 noundef %12) #18
  %.not5 = icmp eq i32 %13, 0
  br i1 %.not5, label %22, label %14

14:                                               ; preds = %9
  %15 = load i8, ptr %10, align 1, !tbaa !23
  %.not.i = icmp eq i8 %15, 0
  br i1 %.not.i, label %22, label %16

16:                                               ; preds = %14
  %17 = getelementptr inbounds nuw i8, ptr %0, i64 864
  %18 = load ptr, ptr %17, align 8, !tbaa !80
  %19 = tail call i64 @strlen(ptr noundef nonnull dereferenceable(1) %10) #19
  tail call void %18(ptr noundef nonnull %0, ptr noundef nonnull %10, i64 noundef %19) #18
  %20 = load ptr, ptr %17, align 8, !tbaa !80
  call void %20(ptr noundef nonnull %0, ptr noundef nonnull %3, i64 noundef 1) #18
  %21 = load ptr, ptr %17, align 8, !tbaa !80
  call void %21(ptr noundef nonnull %0, ptr noundef nonnull @.str.63, i64 noundef 3) #18
  br label %output_color.exit

22:                                               ; preds = %14, %9
  %23 = getelementptr inbounds nuw i8, ptr %0, i64 864
  %24 = load ptr, ptr %23, align 8, !tbaa !80
  call void %24(ptr noundef nonnull %0, ptr noundef nonnull %3, i64 noundef 1) #18
  br label %output_color.exit

output_color.exit:                                ; preds = %22, %16, %6
  ret void
}